target datalayout = "e-m:e-p270:32:32-p271:32:32-p272:64:64-i64:64-i128:128-f80:128-n8:16:32:64-S128"
target triple = "x86_64-pc-linux-gnu"

%struct.CPUClass = type { %struct.DeviceClass, ptr, ptr, ptr, ptr, ptr, ptr, ptr, ptr, ptr, ptr, ptr, ptr, ptr, ptr, ptr, ptr, ptr, ptr, ptr, ptr, ptr, i32, i32, i8 }
%struct.DeviceClass = type { %struct.ObjectClass, [1 x i64], ptr, ptr, ptr, i16, i8, i8, ptr, ptr, ptr, ptr, ptr, ptr }
%struct.ObjectClass = type { ptr, ptr, [4 x ptr], [4 x ptr], ptr, ptr }

@.str.2 = private unnamed_addr constant [11 x i8] c"-riscv-cpu\00", align 1
@.str.11 = private unnamed_addr constant [4 x i8] c"cpu\00", align 1
@.str.12 = private unnamed_addr constant [100 x i8] c"/home/dtcxzyw/WorkSpace/Projects/compilers/llvm-opt-benchmark/bench/qemu/qemu/include/hw/core/cpu.h\00", align 1
@__func__.CPU_CLASS = private unnamed_addr constant [10 x i8] c"CPU_CLASS\00", align 1
@.str.18 = private unnamed_addr constant [19 x i8] c"  %s (deprecated)\0A\00", align 1
@.str.19 = private unnamed_addr constant [6 x i8] c"  %s\0A\00", align 1

; Function Attrs: inlinehint nounwind sspstrong uwtable
define internal void @g_autoptr_cleanup_generic_gfree(ptr noundef %0) #1 {
  %2 = alloca ptr, align 8
  %3 = alloca ptr, align 8
  store ptr %0, ptr %2, align 8
  call void @llvm.lifetime.start.p0(i64 8, ptr %3) #16
  %4 = load ptr, ptr %2, align 8
  store ptr %4, ptr %3, align 8
  %5 = load ptr, ptr %3, align 8
  %6 = load ptr, ptr %5, align 8
  call void @g_free(ptr noundef %6)
  call void @llvm.lifetime.end.p0(i64 8, ptr %3) #16
  ret void
}

; Function Attrs: nounwind sspstrong uwtable
define dso_local ptr @cpu_model_from_type(ptr noundef %0) #0 {
  %2 = alloca ptr, align 8
  %3 = alloca ptr, align 8
  %4 = alloca ptr, align 8
  %5 = alloca i32, align 4
  store ptr %0, ptr %3, align 8
  call void @llvm.lifetime.start.p0(i64 8, ptr %4) #16
  store ptr @.str.2, ptr %4, align 8
  %6 = load ptr, ptr %3, align 8
  %7 = call ptr @object_class_by_name(ptr noundef %6)
  %8 = icmp ne ptr %7, null
  br i1 %8, label %10, label %9

9:                                                ; preds = %1
  store ptr null, ptr %2, align 8
  store i32 1, ptr %5, align 4
  br label %26

10:                                               ; preds = %1
  %11 = load ptr, ptr %3, align 8
  %12 = load ptr, ptr %4, align 8
  %13 = call i32 @g_str_has_suffix(ptr noundef %11, ptr noundef %12)
  %14 = icmp ne i32 %13, 0
  br i1 %14, label %15, label %23

15:                                               ; preds = %10
  %16 = load ptr, ptr %3, align 8
  %17 = load ptr, ptr %3, align 8
  %18 = call i64 @strlen(ptr noundef %17) #18
  %19 = load ptr, ptr %4, align 8
  %20 = call i64 @strlen(ptr noundef %19) #18
  %21 = sub i64 %18, %20
  %22 = call noalias ptr @g_strndup(ptr noundef %16, i64 noundef %21)
  store ptr %22, ptr %2, align 8
  store i32 1, ptr %5, align 4
  br label %26

23:                                               ; preds = %10
  %24 = load ptr, ptr %3, align 8
  %25 = call noalias ptr @g_strdup(ptr noundef %24)
  store ptr %25, ptr %2, align 8
  store i32 1, ptr %5, align 4
  br label %26

26:                                               ; preds = %23, %15, %9
  call void @llvm.lifetime.end.p0(i64 8, ptr %4) #16
  %27 = load ptr, ptr %2, align 8
  ret ptr %27
}

; Function Attrs: inlinehint nounwind sspstrong uwtable
define internal ptr @CPU_CLASS(ptr noundef %0) #1 {
  %2 = alloca ptr, align 8
  store ptr %0, ptr %2, align 8
  %3 = load ptr, ptr %2, align 8
  %4 = call ptr @object_class_dynamic_cast_assert(ptr noundef %3, ptr noundef @.str.11, ptr noundef @.str.12, i32 noundef 67, ptr noundef @__func__.CPU_CLASS)
  ret ptr %4
}

; Function Attrs: nounwind sspstrong uwtable
define internal void @cpu_list_entry(ptr noundef %0, ptr noundef %1) #0 {
  %3 = alloca ptr, align 8
  %4 = alloca ptr, align 8
  %5 = alloca ptr, align 8
  %6 = alloca ptr, align 8
  %7 = alloca ptr, align 8
  store ptr %0, ptr %3, align 8
  store ptr %1, ptr %4, align 8
  call void @llvm.lifetime.start.p0(i64 8, ptr %5) #16
  %8 = load ptr, ptr %3, align 8
  %9 = call ptr @CPU_CLASS(ptr noundef %8)
  store ptr %9, ptr %5, align 8
  call void @llvm.lifetime.start.p0(i64 8, ptr %6) #16
  %10 = load ptr, ptr %3, align 8
  %11 = call ptr @object_class_get_name(ptr noundef %10)
  store ptr %11, ptr %6, align 8
  call void @llvm.lifetime.start.p0(i64 8, ptr %7) #16
  %12 = load ptr, ptr %6, align 8
  %13 = call ptr @cpu_model_from_type(ptr noundef %12)
  store ptr %13, ptr %7, align 8
  %14 = load ptr, ptr %5, align 8
  %15 = getelementptr inbounds nuw %struct.CPUClass, ptr %14, i32 0, i32 17
  %16 = load ptr, ptr %15, align 8
  %17 = icmp ne ptr %16, null
  br i1 %17, label %18, label %21

18:                                               ; preds = %2
  %19 = load ptr, ptr %7, align 8
  %20 = call i32 (ptr, ...) @qemu_printf(ptr noundef @.str.18, ptr noundef %19)
  br label %24

21:                                               ; preds = %2
  %22 = load ptr, ptr %7, align 8
  %23 = call i32 (ptr, ...) @qemu_printf(ptr noundef @.str.19, ptr noundef %22)
  br label %24

24:                                               ; preds = %21, %18
  call void @g_autoptr_cleanup_generic_gfree(ptr noundef %7)
  call void @llvm.lifetime.end.p0(i64 8, ptr %7) #16
  call void @llvm.lifetime.end.p0(i64 8, ptr %6) #16
  call void @llvm.lifetime.end.p0(i64 8, ptr %5) #16
  ret void
}