; Function Attrs: nounwind sspstrong uwtable
define internal void @cpu_list_entry(ptr noundef %0, ptr readnone captures(none) %1) #0 {
  %3 = tail call ptr @object_class_dynamic_cast_assert(ptr noundef %0, ptr noundef nonnull @.str.11, ptr noundef nonnull @.str.12, i32 noundef 67, ptr noundef nonnull @__func__.CPU_CLASS) #17
  %4 = tail call ptr @object_class_get_name(ptr noundef %0) #17
  %5 = tail call ptr @object_class_by_name(ptr noundef %4) #17
  %.not.i = icmp eq ptr %5, null
  br i1 %.not.i, label %cpu_model_from_type.exit, label %6

6:                                                ; preds = %2
  %7 = tail call i32 @g_str_has_suffix(ptr noundef %4, ptr noundef nonnull @.str.2) #17
  %.not8.i = icmp eq i32 %7, 0
  br i1 %.not8.i, label %12, label %8

8:                                                ; preds = %6
  %9 = tail call i64 @strlen(ptr noundef nonnull dereferenceable(1) %4) #19
  %10 = add i64 %9, -10
  %11 = tail call noalias ptr @g_strndup(ptr noundef nonnull %4, i64 noundef %10) #17
  br label %cpu_model_from_type.exit

12:                                               ; preds = %6
  %13 = tail call noalias ptr @g_strdup(ptr noundef %4) #17
  br label %cpu_model_from_type.exit

cpu_model_from_type.exit:                         ; preds = %2, %8, %12
  %.0.i = phi ptr [ %11, %8 ], [ %13, %12 ], [ null, %2 ]
  %14 = getelementptr inbounds nuw i8, ptr %3, i64 312
  %15 = load ptr, ptr %14, align 8
  %.not = icmp eq ptr %15, null
  %.str.19..str.18 = select i1 %.not, ptr @.str.19, ptr @.str.18
  %16 = tail call i32 (ptr, ...) @qemu_printf(ptr noundef nonnull %.str.19..str.18, ptr noundef %.0.i) #17
  tail call void @g_free(ptr noundef %.0.i) #17
  ret void
}